; Function Attrs: nounwind uwtable
define ptr @l_Lean_Grind_CommRing_Poly_combine_x27(ptr noundef %0, ptr noundef %1, ptr noundef %2) local_unnamed_addr #1 {
  %4 = ptrtoint ptr %2 to i64
  %5 = and i64 %4, 1
  %.not.i14 = icmp eq i64 %5, 0
  br i1 %.not.i14, label %9, label %6

6:                                                ; preds = %3
  %7 = lshr i64 %4, 1
  %8 = trunc i64 %7 to i32
  br label %lean_obj_tag.exit

9:                                                ; preds = %3
  %10 = getelementptr i8, ptr %2, i64 4
  %.val.i = load i32, ptr %10, align 4
  %11 = lshr i32 %.val.i, 24
  br label %lean_obj_tag.exit

lean_obj_tag.exit:                                ; preds = %6, %9
  %.0.i = phi i32 [ %8, %6 ], [ %11, %9 ]
  %12 = icmp eq i32 %.0.i, 0
  br i1 %12, label %13, label %16

13:                                               ; preds = %lean_obj_tag.exit
  %14 = load ptr, ptr @l_Lean_Grind_CommRing_hugeFuel, align 8, !tbaa !6
  %15 = tail call ptr @l_Lean_Grind_CommRing_Poly_combine_go(ptr noundef %14, ptr noundef %0, ptr noundef %1) #6
  br label %36

16:                                               ; preds = %lean_obj_tag.exit
  %17 = getelementptr inbounds nuw i8, ptr %2, i64 8
  %18 = load ptr, ptr %17, align 8, !tbaa !6
  %19 = ptrtoint ptr %18 to i64
  %20 = and i64 %19, 1
  %.not = icmp eq i64 %20, 0
  br i1 %.not, label %21, label %lean_inc.exit

21:                                               ; preds = %16
  %.val.i15 = load i32, ptr %18, align 4, !tbaa !10
  %22 = icmp sgt i32 %.val.i15, 0
  br i1 %22, label %23, label %25, !prof !5

23:                                               ; preds = %21
  %24 = add nuw i32 %.val.i15, 1
  store i32 %24, ptr %18, align 4, !tbaa !10
  br label %lean_inc.exit

25:                                               ; preds = %21
  %.not.i16 = icmp eq i32 %.val.i15, 0
  br i1 %.not.i16, label %lean_inc.exit, label %26

26:                                               ; preds = %25
  tail call void @lean_inc_ref_cold(ptr noundef nonnull %18) #6
  br label %lean_inc.exit

lean_inc.exit:                                    ; preds = %26, %25, %23, %16
  br i1 %.not.i14, label %27, label %lean_dec.exit

27:                                               ; preds = %lean_inc.exit
  %28 = load i32, ptr %2, align 4, !tbaa !10
  %29 = icmp sgt i32 %28, 1
  br i1 %29, label %30, label %32, !prof !5

30:                                               ; preds = %27
  %31 = add nsw i32 %28, -1
  store i32 %31, ptr %2, align 4, !tbaa !10
  br label %lean_dec.exit

32:                                               ; preds = %27
  %.not.i = icmp eq i32 %28, 0
  br i1 %.not.i, label %lean_dec.exit, label %33

33:                                               ; preds = %32
  tail call void @lean_dec_ref_cold(ptr noundef nonnull %2) #6
  br label %lean_dec.exit

lean_dec.exit:                                    ; preds = %33, %32, %30, %lean_inc.exit
  %34 = load ptr, ptr @l_Lean_Grind_CommRing_hugeFuel, align 8, !tbaa !6
  %35 = tail call ptr @l_Lean_Grind_CommRing_Poly_combineC_go(ptr noundef %18, ptr noundef %34, ptr noundef %0, ptr noundef %1) #6
  br label %36

36:                                               ; preds = %lean_dec.exit, %13
  %.0 = phi ptr [ %15, %13 ], [ %35, %lean_dec.exit ]
  ret ptr %.0
}